target datalayout = "e-m:e-p270:32:32-p271:32:32-p272:64:64-i64:64-i128:128-f80:128-n8:16:32:64-S128"
target triple = "x86_64-pc-linux-gnu"

%struct.Msat_Solver_t_ = type { i32, i32, ptr, ptr, double, double, ptr, ptr, double, double, ptr, ptr, ptr, i32, i32, ptr, ptr, ptr, ptr, ptr, ptr, i32, double, i32, double, ptr, ptr, ptr, ptr, i32, ptr, ptr, ptr, ptr, %struct.Msat_SolverStats_t_, i32, i32, i32, i32, i32, i32 }
%struct.Msat_SolverStats_t_ = type { i64, i64, i64, i64, i64, i64 }

; Function Attrs: nounwind uwtable
define void @Msat_SolverClean(ptr noundef %0, i32 noundef %1) #0 {
  %3 = alloca ptr, align 8
  %4 = alloca i32, align 4
  %5 = alloca i32, align 4
  %6 = alloca i32, align 4
  %7 = alloca ptr, align 8
  store ptr %0, ptr %3, align 8, !tbaa !3
  store i32 %1, ptr %4, align 4, !tbaa !29
  call void @llvm.lifetime.start.p0(i64 4, ptr %5) #7
  call void @llvm.lifetime.start.p0(i64 4, ptr %6) #7
  call void @llvm.lifetime.start.p0(i64 8, ptr %7) #7
  %8 = load i32, ptr %4, align 4, !tbaa !29
  %9 = load ptr, ptr %3, align 8, !tbaa !3
  %10 = getelementptr inbounds nuw %struct.Msat_Solver_t_, ptr %9, i32 0, i32 13
  store i32 %8, ptr %10, align 8, !tbaa !8
  %11 = load ptr, ptr %3, align 8, !tbaa !3
  %12 = getelementptr inbounds nuw %struct.Msat_Solver_t_, ptr %11, i32 0, i32 0
  store i32 0, ptr %12, align 8, !tbaa !24
  %13 = load ptr, ptr %3, align 8, !tbaa !3
  %14 = getelementptr inbounds nuw %struct.Msat_Solver_t_, ptr %13, i32 0, i32 2
  %15 = load ptr, ptr %14, align 8, !tbaa !42
  %16 = call i32 @Msat_ClauseVecReadSize(ptr noundef %15)
  store i32 %16, ptr %6, align 4, !tbaa !29
  %17 = load ptr, ptr %3, align 8, !tbaa !3
  %18 = getelementptr inbounds nuw %struct.Msat_Solver_t_, ptr %17, i32 0, i32 2
  %19 = load ptr, ptr %18, align 8, !tbaa !42
  %20 = call ptr @Msat_ClauseVecReadArray(ptr noundef %19)
  store ptr %20, ptr %7, align 8, !tbaa !78
  store i32 0, ptr %5, align 4, !tbaa !29
  br label %21

21:                                               ; preds = %32, %2
  %22 = load i32, ptr %5, align 4, !tbaa !29
  %23 = load i32, ptr %6, align 4, !tbaa !29
  %24 = icmp slt i32 %22, %23
  br i1 %24, label %25, label %35

25:                                               ; preds = %21
  %26 = load ptr, ptr %3, align 8, !tbaa !3
  %27 = load ptr, ptr %7, align 8, !tbaa !78
  %28 = load i32, ptr %5, align 4, !tbaa !29
  %29 = sext i32 %28 to i64
  %30 = getelementptr inbounds ptr, ptr %27, i64 %29
  %31 = load ptr, ptr %30, align 8, !tbaa !73
  call void @Msat_ClauseFree(ptr noundef %26, ptr noundef %31, i32 noundef 0)
  br label %32

32:                                               ; preds = %25
  %33 = load i32, ptr %5, align 4, !tbaa !29
  %34 = add nsw i32 %33, 1
  store i32 %34, ptr %5, align 4, !tbaa !29
  br label %21, !llvm.loop !79

35:                                               ; preds = %21
  %36 = load ptr, ptr %3, align 8, !tbaa !3
  %37 = getelementptr inbounds nuw %struct.Msat_Solver_t_, ptr %36, i32 0, i32 2
  %38 = load ptr, ptr %37, align 8, !tbaa !42
  call void @Msat_ClauseVecClear(ptr noundef %38)
  %39 = load ptr, ptr %3, align 8, !tbaa !3
  %40 = getelementptr inbounds nuw %struct.Msat_Solver_t_, ptr %39, i32 0, i32 3
  %41 = load ptr, ptr %40, align 8, !tbaa !31
  %42 = call i32 @Msat_ClauseVecReadSize(ptr noundef %41)
  store i32 %42, ptr %6, align 4, !tbaa !29
  %43 = load ptr, ptr %3, align 8, !tbaa !3
  %44 = getelementptr inbounds nuw %struct.Msat_Solver_t_, ptr %43, i32 0, i32 3
  %45 = load ptr, ptr %44, align 8, !tbaa !31
  %46 = call ptr @Msat_ClauseVecReadArray(ptr noundef %45)
  store ptr %46, ptr %7, align 8, !tbaa !78
  store i32 0, ptr %5, align 4, !tbaa !29
  br label %47

47:                                               ; preds = %58, %35
  %48 = load i32, ptr %5, align 4, !tbaa !29
  %49 = load i32, ptr %6, align 4, !tbaa !29
  %50 = icmp slt i32 %48, %49
  br i1 %50, label %51, label %61

51:                                               ; preds = %47
  %52 = load ptr, ptr %3, align 8, !tbaa !3
  %53 = load ptr, ptr %7, align 8, !tbaa !78
  %54 = load i32, ptr %5, align 4, !tbaa !29
  %55 = sext i32 %54 to i64
  %56 = getelementptr inbounds ptr, ptr %53, i64 %55
  %57 = load ptr, ptr %56, align 8, !tbaa !73
  call void @Msat_ClauseFree(ptr noundef %52, ptr noundef %57, i32 noundef 0)
  br label %58

58:                                               ; preds = %51
  %59 = load i32, ptr %5, align 4, !tbaa !29
  %60 = add nsw i32 %59, 1
  store i32 %60, ptr %5, align 4, !tbaa !29
  br label %47, !llvm.loop !80

61:                                               ; preds = %47
  %62 = load ptr, ptr %3, align 8, !tbaa !3
  %63 = getelementptr inbounds nuw %struct.Msat_Solver_t_, ptr %62, i32 0, i32 3
  %64 = load ptr, ptr %63, align 8, !tbaa !31
  call void @Msat_ClauseVecClear(ptr noundef %64)
  store i32 0, ptr %5, align 4, !tbaa !29
  br label %65

65:                                               ; preds = %78, %61
  %66 = load i32, ptr %5, align 4, !tbaa !29
  %67 = load ptr, ptr %3, align 8, !tbaa !3
  %68 = getelementptr inbounds nuw %struct.Msat_Solver_t_, ptr %67, i32 0, i32 13
  %69 = load i32, ptr %68, align 8, !tbaa !8
  %70 = icmp slt i32 %66, %69
  br i1 %70, label %71, label %81

71:                                               ; preds = %65
  %72 = load ptr, ptr %3, align 8, !tbaa !3
  %73 = getelementptr inbounds nuw %struct.Msat_Solver_t_, ptr %72, i32 0, i32 6
  %74 = load ptr, ptr %73, align 8, !tbaa !53
  %75 = load i32, ptr %5, align 4, !tbaa !29
  %76 = sext i32 %75 to i64
  %77 = getelementptr inbounds double, ptr %74, i64 %76
  store double 0.000000e+00, ptr %77, align 8, !tbaa !48
  br label %78

78:                                               ; preds = %71
  %79 = load i32, ptr %5, align 4, !tbaa !29
  %80 = add nsw i32 %79, 1
  store i32 %80, ptr %5, align 4, !tbaa !29
  br label %65, !llvm.loop !81

81:                                               ; preds = %65
  %82 = load ptr, ptr %3, align 8, !tbaa !3
  %83 = getelementptr inbounds nuw %struct.Msat_Solver_t_, ptr %82, i32 0, i32 10
  %84 = load ptr, ptr %83, align 8, !tbaa !59
  %85 = load ptr, ptr %3, align 8, !tbaa !3
  %86 = getelementptr inbounds nuw %struct.Msat_Solver_t_, ptr %85, i32 0, i32 13
  %87 = load i32, ptr %86, align 8, !tbaa !8
  call void @Msat_OrderSetBounds(ptr noundef %84, i32 noundef %87)
  store i32 0, ptr %5, align 4, !tbaa !29
  br label %88

88:                                               ; preds = %103, %81
  %89 = load i32, ptr %5, align 4, !tbaa !29
  %90 = load ptr, ptr %3, align 8, !tbaa !3
  %91 = getelementptr inbounds nuw %struct.Msat_Solver_t_, ptr %90, i32 0, i32 13
  %92 = load i32, ptr %91, align 8, !tbaa !8
  %93 = mul nsw i32 2, %92
  %94 = icmp slt i32 %89, %93
  br i1 %94, label %95, label %106

95:                                               ; preds = %88
  %96 = load ptr, ptr %3, align 8, !tbaa !3
  %97 = getelementptr inbounds nuw %struct.Msat_Solver_t_, ptr %96, i32 0, i32 11
  %98 = load ptr, ptr %97, align 8, !tbaa !32
  %99 = load i32, ptr %5, align 4, !tbaa !29
  %100 = sext i32 %99 to i64
  %101 = getelementptr inbounds ptr, ptr %98, i64 %100
  %102 = load ptr, ptr %101, align 8, !tbaa !60
  call void @Msat_ClauseVecClear(ptr noundef %102)
  br label %103

103:                                              ; preds = %95
  %104 = load i32, ptr %5, align 4, !tbaa !29
  %105 = add nsw i32 %104, 1
  store i32 %105, ptr %5, align 4, !tbaa !29
  br label %88, !llvm.loop !82

106:                                              ; preds = %88
  %107 = load ptr, ptr %3, align 8, !tbaa !3
  %108 = getelementptr inbounds nuw %struct.Msat_Solver_t_, ptr %107, i32 0, i32 12
  %109 = load ptr, ptr %108, align 8, !tbaa !62
  call void @Msat_QueueClear(ptr noundef %109)
  store i32 0, ptr %5, align 4, !tbaa !29
  br label %110

110:                                              ; preds = %123, %106
  %111 = load i32, ptr %5, align 4, !tbaa !29
  %112 = load ptr, ptr %3, align 8, !tbaa !3
  %113 = getelementptr inbounds nuw %struct.Msat_Solver_t_, ptr %112, i32 0, i32 13
  %114 = load i32, ptr %113, align 8, !tbaa !8
  %115 = icmp slt i32 %111, %114
  br i1 %115, label %116, label %126

116:                                              ; preds = %110
  %117 = load ptr, ptr %3, align 8, !tbaa !3
  %118 = getelementptr inbounds nuw %struct.Msat_Solver_t_, ptr %117, i32 0, i32 15
  %119 = load ptr, ptr %118, align 8, !tbaa !30
  %120 = load i32, ptr %5, align 4, !tbaa !29
  %121 = sext i32 %120 to i64
  %122 = getelementptr inbounds i32, ptr %119, i64 %121
  store i32 -1, ptr %122, align 4, !tbaa !29
  br label %123

123:                                              ; preds = %116
  %124 = load i32, ptr %5, align 4, !tbaa !29
  %125 = add nsw i32 %124, 1
  store i32 %125, ptr %5, align 4, !tbaa !29
  br label %110, !llvm.loop !83

126:                                              ; preds = %110
  %127 = load ptr, ptr %3, align 8, !tbaa !3
  %128 = getelementptr inbounds nuw %struct.Msat_Solver_t_, ptr %127, i32 0, i32 17
  %129 = load ptr, ptr %128, align 8, !tbaa !63
  call void @Msat_IntVecClear(ptr noundef %129)
  %130 = load ptr, ptr %3, align 8, !tbaa !3
  %131 = getelementptr inbounds nuw %struct.Msat_Solver_t_, ptr %130, i32 0, i32 18
  %132 = load ptr, ptr %131, align 8, !tbaa !26
  call void @Msat_IntVecClear(ptr noundef %132)
  %133 = load ptr, ptr %3, align 8, !tbaa !3
  %134 = getelementptr inbounds nuw %struct.Msat_Solver_t_, ptr %133, i32 0, i32 19
  %135 = load ptr, ptr %134, align 8, !tbaa !28
  %136 = load ptr, ptr %3, align 8, !tbaa !3
  %137 = getelementptr inbounds nuw %struct.Msat_Solver_t_, ptr %136, i32 0, i32 13
  %138 = load i32, ptr %137, align 8, !tbaa !8
  %139 = sext i32 %138 to i64
  %140 = mul i64 8, %139
  call void @llvm.memset.p0.i64(ptr align 8 %135, i8 0, i64 %140, i1 false)
  store i32 0, ptr %5, align 4, !tbaa !29
  br label %141

141:                                              ; preds = %154, %126
  %142 = load i32, ptr %5, align 4, !tbaa !29
  %143 = load ptr, ptr %3, align 8, !tbaa !3
  %144 = getelementptr inbounds nuw %struct.Msat_Solver_t_, ptr %143, i32 0, i32 13
  %145 = load i32, ptr %144, align 8, !tbaa !8
  %146 = icmp slt i32 %142, %145
  br i1 %146, label %147, label %157

147:                                              ; preds = %141
  %148 = load ptr, ptr %3, align 8, !tbaa !3
  %149 = getelementptr inbounds nuw %struct.Msat_Solver_t_, ptr %148, i32 0, i32 20
  %150 = load ptr, ptr %149, align 8, !tbaa !27
  %151 = load i32, ptr %5, align 4, !tbaa !29
  %152 = sext i32 %151 to i64
  %153 = getelementptr inbounds i32, ptr %150, i64 %152
  store i32 -1, ptr %153, align 4, !tbaa !29
  br label %154

154:                                              ; preds = %147
  %155 = load i32, ptr %5, align 4, !tbaa !29
  %156 = add nsw i32 %155, 1
  store i32 %156, ptr %5, align 4, !tbaa !29
  br label %141, !llvm.loop !84

157:                                              ; preds = %141
  %158 = load ptr, ptr %3, align 8, !tbaa !3
  %159 = getelementptr inbounds nuw %struct.Msat_Solver_t_, ptr %158, i32 0, i32 22
  store double 0x4195D9C3F4000000, ptr %159, align 8, !tbaa !65
  %160 = load ptr, ptr %3, align 8, !tbaa !3
  %161 = getelementptr inbounds nuw %struct.Msat_Solver_t_, ptr %160, i32 0, i32 24
  store double 0.000000e+00, ptr %161, align 8, !tbaa !66
  %162 = load ptr, ptr %3, align 8, !tbaa !3
  %163 = getelementptr inbounds nuw %struct.Msat_Solver_t_, ptr %162, i32 0, i32 28
  %164 = load ptr, ptr %163, align 8, !tbaa !37
  %165 = load ptr, ptr %3, align 8, !tbaa !3
  %166 = getelementptr inbounds nuw %struct.Msat_Solver_t_, ptr %165, i32 0, i32 13
  %167 = load i32, ptr %166, align 8, !tbaa !8
  %168 = sext i32 %167 to i64
  %169 = mul i64 4, %168
  call void @llvm.memset.p0.i64(ptr align 4 %164, i8 0, i64 %169, i1 false)
  %170 = load ptr, ptr %3, align 8, !tbaa !3
  %171 = getelementptr inbounds nuw %struct.Msat_Solver_t_, ptr %170, i32 0, i32 29
  store i32 1, ptr %171, align 8, !tbaa !38
  %172 = load ptr, ptr %3, align 8, !tbaa !3
  %173 = getelementptr inbounds nuw %struct.Msat_Solver_t_, ptr %172, i32 0, i32 30
  %174 = load ptr, ptr %173, align 8, !tbaa !68
  call void @Msat_IntVecClear(ptr noundef %174)
  %175 = load ptr, ptr %3, align 8, !tbaa !3
  %176 = getelementptr inbounds nuw %struct.Msat_Solver_t_, ptr %175, i32 0, i32 31
  %177 = load ptr, ptr %176, align 8, !tbaa !69
  call void @Msat_IntVecClear(ptr noundef %177)
  call void @llvm.lifetime.end.p0(i64 8, ptr %7) #7
  call void @llvm.lifetime.end.p0(i64 4, ptr %6) #7
  call void @llvm.lifetime.end.p0(i64 4, ptr %5) #7
  ret void
}