; Function Attrs: nounwind uwtable
define void @Msat_SolverClean(ptr noundef initializes((0, 4), (96, 100)) %0, i32 noundef %1) local_unnamed_addr #1 {
  %3 = getelementptr inbounds nuw i8, ptr %0, i64 96
  store i32 %1, ptr %3, align 8, !tbaa !3
  store i32 0, ptr %0, align 8, !tbaa !22
  %4 = getelementptr inbounds nuw i8, ptr %0, i64 8
  %5 = load ptr, ptr %4, align 8, !tbaa !40
  %6 = tail call i32 @Msat_ClauseVecReadSize(ptr noundef %5) #11
  %7 = load ptr, ptr %4, align 8, !tbaa !40
  %8 = tail call ptr @Msat_ClauseVecReadArray(ptr noundef %7) #11
  %9 = icmp sgt i32 %6, 0
  br i1 %9, label %.lr.ph.preheader, label %._crit_edge

.lr.ph.preheader:                                 ; preds = %2
  %wide.trip.count = zext nneg i32 %6 to i64
  br label %.lr.ph

.lr.ph:                                           ; preds = %.lr.ph.preheader, %.lr.ph
  %indvars.iv = phi i64 [ 0, %.lr.ph.preheader ], [ %indvars.iv.next, %.lr.ph ]
  %10 = getelementptr inbounds nuw ptr, ptr %8, i64 %indvars.iv
  %11 = load ptr, ptr %10, align 8, !tbaa !69
  tail call void @Msat_ClauseFree(ptr noundef nonnull %0, ptr noundef %11, i32 noundef 0) #11
  %indvars.iv.next = add nuw nsw i64 %indvars.iv, 1
  %exitcond.not = icmp eq i64 %indvars.iv.next, %wide.trip.count
  br i1 %exitcond.not, label %._crit_edge, label %.lr.ph, !llvm.loop !73

._crit_edge:                                      ; preds = %.lr.ph, %2
  %12 = load ptr, ptr %4, align 8, !tbaa !40
  tail call void @Msat_ClauseVecClear(ptr noundef %12) #11
  %13 = getelementptr inbounds nuw i8, ptr %0, i64 16
  %14 = load ptr, ptr %13, align 8, !tbaa !29
  %15 = tail call i32 @Msat_ClauseVecReadSize(ptr noundef %14) #11
  %16 = load ptr, ptr %13, align 8, !tbaa !29
  %17 = tail call ptr @Msat_ClauseVecReadArray(ptr noundef %16) #11
  %18 = icmp sgt i32 %15, 0
  br i1 %18, label %.lr.ph59.preheader, label %._crit_edge60

.lr.ph59.preheader:                               ; preds = %._crit_edge
  %wide.trip.count83 = zext nneg i32 %15 to i64
  br label %.lr.ph59

.lr.ph59:                                         ; preds = %.lr.ph59.preheader, %.lr.ph59
  %indvars.iv80 = phi i64 [ 0, %.lr.ph59.preheader ], [ %indvars.iv.next81, %.lr.ph59 ]
  %19 = getelementptr inbounds nuw ptr, ptr %17, i64 %indvars.iv80
  %20 = load ptr, ptr %19, align 8, !tbaa !69
  tail call void @Msat_ClauseFree(ptr noundef nonnull %0, ptr noundef %20, i32 noundef 0) #11
  %indvars.iv.next81 = add nuw nsw i64 %indvars.iv80, 1
  %exitcond84.not = icmp eq i64 %indvars.iv.next81, %wide.trip.count83
  br i1 %exitcond84.not, label %._crit_edge60, label %.lr.ph59, !llvm.loop !74

._crit_edge60:                                    ; preds = %.lr.ph59, %._crit_edge
  %21 = load ptr, ptr %13, align 8, !tbaa !29
  tail call void @Msat_ClauseVecClear(ptr noundef %21) #11
  %22 = load i32, ptr %3, align 8, !tbaa !3
  %23 = icmp sgt i32 %22, 0
  br i1 %23, label %.lr.ph63, label %._crit_edge64

.lr.ph63:                                         ; preds = %._crit_edge60
  %24 = getelementptr inbounds nuw i8, ptr %0, i64 40
  %25 = load ptr, ptr %24, align 8, !tbaa !50
  %26 = zext nneg i32 %22 to i64
  %27 = shl nuw nsw i64 %26, 3
  tail call void @llvm.memset.p0.i64(ptr align 8 %25, i8 0, i64 %27, i1 false), !tbaa !51
  br label %._crit_edge64

._crit_edge64:                                    ; preds = %.lr.ph63, %._crit_edge60
  %28 = getelementptr inbounds nuw i8, ptr %0, i64 72
  %29 = load ptr, ptr %28, align 8, !tbaa !56
  tail call void @Msat_OrderSetBounds(ptr noundef %29, i32 noundef %22) #11
  %30 = load i32, ptr %3, align 8, !tbaa !3
  %31 = icmp sgt i32 %30, 0
  br i1 %31, label %.lr.ph67, label %._crit_edge68

.lr.ph67:                                         ; preds = %._crit_edge64
  %32 = getelementptr inbounds nuw i8, ptr %0, i64 80
  br label %33

33:                                               ; preds = %.lr.ph67, %33
  %indvars.iv88 = phi i64 [ 0, %.lr.ph67 ], [ %indvars.iv.next89, %33 ]
  %34 = load ptr, ptr %32, align 8, !tbaa !30
  %35 = getelementptr inbounds nuw ptr, ptr %34, i64 %indvars.iv88
  %36 = load ptr, ptr %35, align 8, !tbaa !57
  tail call void @Msat_ClauseVecClear(ptr noundef %36) #11
  %indvars.iv.next89 = add nuw nsw i64 %indvars.iv88, 1
  %37 = load i32, ptr %3, align 8, !tbaa !3
  %38 = shl nsw i32 %37, 1
  %39 = sext i32 %38 to i64
  %40 = icmp slt i64 %indvars.iv.next89, %39
  br i1 %40, label %33, label %._crit_edge68, !llvm.loop !75

._crit_edge68:                                    ; preds = %33, %._crit_edge64
  %41 = getelementptr inbounds nuw i8, ptr %0, i64 88
  %42 = load ptr, ptr %41, align 8, !tbaa !59
  tail call void @Msat_QueueClear(ptr noundef %42) #11
  %43 = load i32, ptr %3, align 8, !tbaa !3
  %44 = icmp sgt i32 %43, 0
  br i1 %44, label %.lr.ph71, label %._crit_edge72

.lr.ph71:                                         ; preds = %._crit_edge68
  %45 = getelementptr inbounds nuw i8, ptr %0, i64 104
  %46 = load ptr, ptr %45, align 8, !tbaa !27
  br label %47

47:                                               ; preds = %.lr.ph71, %47
  %indvars.iv91 = phi i64 [ 0, %.lr.ph71 ], [ %indvars.iv.next92, %47 ]
  %48 = getelementptr inbounds nuw i32, ptr %46, i64 %indvars.iv91
  store i32 -1, ptr %48, align 4, !tbaa !28
  %indvars.iv.next92 = add nuw nsw i64 %indvars.iv91, 1
  %49 = load i32, ptr %3, align 8, !tbaa !3
  %50 = sext i32 %49 to i64
  %51 = icmp slt i64 %indvars.iv.next92, %50
  br i1 %51, label %47, label %._crit_edge72, !llvm.loop !76

._crit_edge72:                                    ; preds = %47, %._crit_edge68
  %52 = getelementptr inbounds nuw i8, ptr %0, i64 120
  %53 = load ptr, ptr %52, align 8, !tbaa !60
  tail call void @Msat_IntVecClear(ptr noundef %53) #11
  %54 = getelementptr inbounds nuw i8, ptr %0, i64 128
  %55 = load ptr, ptr %54, align 8, !tbaa !24
  tail call void @Msat_IntVecClear(ptr noundef %55) #11
  %56 = getelementptr inbounds nuw i8, ptr %0, i64 136
  %57 = load ptr, ptr %56, align 8, !tbaa !26
  %58 = load i32, ptr %3, align 8, !tbaa !3
  %59 = sext i32 %58 to i64
  %60 = shl nsw i64 %59, 3
  tail call void @llvm.memset.p0.i64(ptr align 8 %57, i8 0, i64 %60, i1 false)
  %61 = load i32, ptr %3, align 8, !tbaa !3
  %62 = icmp sgt i32 %61, 0
  br i1 %62, label %.lr.ph75, label %._crit_edge72.._crit_edge76_crit_edge

._crit_edge72.._crit_edge76_crit_edge:            ; preds = %._crit_edge72
  %.pre = sext i32 %61 to i64
  br label %._crit_edge76

.lr.ph75:                                         ; preds = %._crit_edge72
  %63 = getelementptr inbounds nuw i8, ptr %0, i64 144
  %64 = load ptr, ptr %63, align 8, !tbaa !25
  br label %65

65:                                               ; preds = %.lr.ph75, %65
  %indvars.iv94 = phi i64 [ 0, %.lr.ph75 ], [ %indvars.iv.next95, %65 ]
  %66 = getelementptr inbounds nuw i32, ptr %64, i64 %indvars.iv94
  store i32 -1, ptr %66, align 4, !tbaa !28
  %indvars.iv.next95 = add nuw nsw i64 %indvars.iv94, 1
  %67 = load i32, ptr %3, align 8, !tbaa !3
  %68 = sext i32 %67 to i64
  %69 = icmp slt i64 %indvars.iv.next95, %68
  br i1 %69, label %65, label %._crit_edge76, !llvm.loop !77

._crit_edge76:                                    ; preds = %65, %._crit_edge72.._crit_edge76_crit_edge
  %.pre-phi = phi i64 [ %.pre, %._crit_edge72.._crit_edge76_crit_edge ], [ %68, %65 ]
  %70 = getelementptr inbounds nuw i8, ptr %0, i64 160
  store double 0x4195D9C3F4000000, ptr %70, align 8, !tbaa !61
  %71 = getelementptr inbounds nuw i8, ptr %0, i64 176
  store double 0.000000e+00, ptr %71, align 8, !tbaa !62
  %72 = getelementptr inbounds nuw i8, ptr %0, i64 208
  %73 = load ptr, ptr %72, align 8, !tbaa !35
  %74 = shl nsw i64 %.pre-phi, 2
  tail call void @llvm.memset.p0.i64(ptr align 4 %73, i8 0, i64 %74, i1 false)
  %75 = getelementptr inbounds nuw i8, ptr %0, i64 216
  store i32 1, ptr %75, align 8, !tbaa !36
  %76 = getelementptr inbounds nuw i8, ptr %0, i64 224
  %77 = load ptr, ptr %76, align 8, !tbaa !64
  tail call void @Msat_IntVecClear(ptr noundef %77) #11
  %78 = getelementptr inbounds nuw i8, ptr %0, i64 232
  %79 = load ptr, ptr %78, align 8, !tbaa !65
  tail call void @Msat_IntVecClear(ptr noundef %79) #11
  ret void
}